; Function Attrs: mustprogress uwtable
define internal fastcc noundef float @_ZN12_GLOBAL__N_110do_1_tholeIL18BondedKernelFlavor2EEEfPKfS3_PfS4_PK5t_pbcfPA3_ff(ptr noundef %0, ptr noundef %1, ptr nocapture noundef %2, ptr nocapture noundef %3, ptr noundef %4, float noundef %5, ptr nocapture noundef %6, float noundef %7) unnamed_addr #4 {
  %9 = alloca [3 x float], align 8
  %.not.i = icmp eq ptr %4, null
  br i1 %.not.i, label %14, label %10

10:                                               ; preds = %8
  %11 = call noundef i32 @_Z11pbc_dx_aiucPK5t_pbcPKfS3_Pf(ptr noundef nonnull %4, ptr noundef %0, ptr noundef %1, ptr noundef nonnull %9)
  %12 = sext i32 %11 to i64
  %13 = load <2 x float>, ptr %9, align 8
  %.phi.trans.insert40 = getelementptr inbounds i8, ptr %9, i64 8
  %.pre41 = load float, ptr %.phi.trans.insert40, align 8
  br label %_ZN12_GLOBAL__N_112pbc_rvec_subEPK5t_pbcPKfS4_Pf.exit

14:                                               ; preds = %8
  %15 = load <2 x float>, ptr %0, align 4
  %16 = load <2 x float>, ptr %1, align 4
  %17 = fsub <2 x float> %15, %16
  %18 = getelementptr inbounds i8, ptr %0, i64 8
  %19 = load float, ptr %18, align 4
  %20 = getelementptr inbounds i8, ptr %1, i64 8
  %21 = load float, ptr %20, align 4
  %22 = fsub float %19, %21
  store <2 x float> %17, ptr %9, align 8
  %23 = getelementptr inbounds i8, ptr %9, i64 8
  store float %22, ptr %23, align 8
  br label %_ZN12_GLOBAL__N_112pbc_rvec_subEPK5t_pbcPKfS4_Pf.exit

_ZN12_GLOBAL__N_112pbc_rvec_subEPK5t_pbcPKfS4_Pf.exit: ; preds = %10, %14
  %24 = phi float [ %.pre41, %10 ], [ %22, %14 ]
  %.0.i = phi i64 [ %12, %10 ], [ 22, %14 ]
  %25 = phi <2 x float> [ %13, %10 ], [ %17, %14 ]
  %26 = fmul <2 x float> %25, %25
  %27 = extractelement <2 x float> %26, i64 1
  %28 = extractelement <2 x float> %25, i64 0
  %29 = call float @llvm.fmuladd.f32(float %28, float %28, float %27)
  %30 = call noundef float @llvm.fmuladd.f32(float %24, float %24, float %29)
  %sqrt = call float @llvm.sqrt.f32(float %30)
  %31 = fdiv float 1.000000e+00, %sqrt
  %32 = fdiv float %7, %31
  %33 = fpext float %5 to double
  %34 = fmul double %33, 0x40615DEF44DEAD3D
  %35 = fpext float %31 to double
  %36 = fmul double %34, %35
  %37 = fptrunc double %36 to float
  %38 = fneg float %32
  %39 = call noundef float @expf(float noundef %38) #22
  %40 = fpext float %32 to double
  %41 = call double @llvm.fmuladd.f64(double %40, double 5.000000e-01, double 1.000000e+00)
  %42 = fpext float %39 to double
  %43 = fneg double %41
  %44 = call double @llvm.fmuladd.f64(double %43, double %42, double 1.000000e+00)
  %45 = fptrunc double %44 to float
  %46 = fmul float %31, %37
  %47 = fmul float %46, %45
  %48 = fpext float %47 to double
  %49 = fpext float %37 to double
  %50 = fpext float %7 to double
  %51 = fadd float %32, 1.000000e+00
  %52 = fpext float %51 to double
  %53 = fmul double %49, -5.000000e-01
  %54 = fmul double %53, %50
  %55 = fmul double %54, %42
  %56 = call double @llvm.fmuladd.f64(double %55, double %52, double %48)
  %57 = fmul double %56, %35
  %58 = fptrunc double %57 to float
  %59 = getelementptr inbounds i8, ptr %6, i64 264
  br label %60

60:                                               ; preds = %_ZN12_GLOBAL__N_112pbc_rvec_subEPK5t_pbcPKfS4_Pf.exit, %60
  %indvars.iv = phi i64 [ 0, %_ZN12_GLOBAL__N_112pbc_rvec_subEPK5t_pbcPKfS4_Pf.exit ], [ %indvars.iv.next, %60 ]
  %61 = getelementptr inbounds [3 x float], ptr %9, i64 0, i64 %indvars.iv
  %62 = load float, ptr %61, align 4
  %63 = fmul float %62, %58
  %64 = getelementptr inbounds float, ptr %2, i64 %indvars.iv
  %65 = load float, ptr %64, align 4
  %66 = fadd float %65, %63
  store float %66, ptr %64, align 4
  %67 = getelementptr inbounds float, ptr %3, i64 %indvars.iv
  %68 = load float, ptr %67, align 4
  %69 = fsub float %68, %63
  store float %69, ptr %67, align 4
  %70 = getelementptr inbounds [3 x float], ptr %6, i64 %.0.i, i64 %indvars.iv
  %71 = load float, ptr %70, align 4
  %72 = fadd float %63, %71
  store float %72, ptr %70, align 4
  %73 = getelementptr inbounds [3 x float], ptr %59, i64 0, i64 %indvars.iv
  %74 = load float, ptr %73, align 4
  %75 = fsub float %74, %63
  store float %75, ptr %73, align 4
  %indvars.iv.next = add nuw nsw i64 %indvars.iv, 1
  %exitcond.not = icmp eq i64 %indvars.iv.next, 3
  br i1 %exitcond.not, label %76, label %60, !llvm.loop !214

76:                                               ; preds = %60
  %77 = fmul float %37, %45
  ret float %77
}